target datalayout = "e-m:e-p270:32:32-p271:32:32-p272:64:64-i64:64-i128:128-f80:128-n8:16:32:64-S128"
target triple = "x86_64-pc-linux-gnu"

%struct.RelationData = type { %struct.RelFileLocator, ptr, i32, i32, i8, i8, i8, i8, i8, i32, i32, i32, i32, ptr, ptr, i32, %struct.LockInfoData, ptr, ptr, ptr, ptr, ptr, i8, ptr, ptr, ptr, ptr, ptr, ptr, i32, ptr, i8, ptr, ptr, i32, i8, i32, ptr, i8, ptr, ptr, ptr, ptr, ptr, ptr, ptr, i32, ptr, ptr, ptr, ptr, ptr, ptr, ptr, ptr, ptr, ptr, ptr, ptr, ptr, ptr, ptr, ptr, ptr, ptr, ptr, i32, i8, ptr }
%struct.RelFileLocator = type { i32, i32, i32 }
%struct.LockInfoData = type { %struct.LockRelId }
%struct.LockRelId = type { i32, i32 }
%struct.nameData = type { [64 x i8] }
%struct.TupleDescData = type { i32, i32, i32, i32, ptr, [0 x %struct.CompactAttribute] }
%struct.CompactAttribute = type { i32, i16, i8, i8, i8, i8, i8, i8, i8 }
%struct.PlannerInfo = type { i32, ptr, ptr, i32, ptr, ptr, ptr, ptr, i32, ptr, ptr, ptr, ptr, ptr, ptr, ptr, ptr, i32, ptr, ptr, ptr, ptr, ptr, i8, ptr, ptr, ptr, ptr, ptr, i32, ptr, ptr, ptr, ptr, ptr, ptr, ptr, i32, ptr, ptr, ptr, i32, ptr, ptr, ptr, ptr, ptr, ptr, [8 x ptr], [8 x ptr], ptr, ptr, ptr, ptr, ptr, ptr, ptr, double, double, double, i32, i8, i8, i8, i8, i8, i8, i8, i32, ptr, ptr, i32, i8, i8, i32, ptr, ptr, ptr, ptr, ptr, ptr, i8, ptr }
%struct.RangeTblEntry = type { i32, ptr, ptr, i32, i32, i8, i8, i32, i32, ptr, ptr, i8, i32, i32, ptr, ptr, ptr, ptr, ptr, i8, ptr, ptr, ptr, i32, i8, ptr, ptr, ptr, ptr, double, ptr, i8, i8, ptr }
%struct.List = type { i32, i32, i32, ptr, [0 x %union.ListCell] }
%union.ListCell = type { ptr }
%struct.FormData_pg_attribute = type { i32, %struct.nameData, i32, i16, i16, i32, i16, i8, i8, i8, i8, i8, i8, i8, i8, i8, i8, i8, i16, i32 }
%struct.Query = type { i32, i32, i32, i64, i8, ptr, i32, i8, i8, i8, i8, i8, i8, i8, i8, i8, i8, i8, ptr, ptr, ptr, ptr, ptr, i32, ptr, ptr, i32, ptr, ptr, ptr, ptr, ptr, i8, ptr, ptr, ptr, ptr, ptr, ptr, ptr, i32, ptr, ptr, ptr, ptr, i32, i32 }
%struct.TupleConstr = type { ptr, ptr, ptr, i16, i16, i8, i8, i8 }
%struct.AttrDefault = type { i16, ptr }

; Function Attrs: inlinehint nounwind uwtable
define internal ptr @list_nth_cell(ptr noundef %0, i32 noundef %1) #4 {
  %3 = alloca ptr, align 8
  %4 = alloca i32, align 4
  store ptr %0, ptr %3, align 8
  store i32 %1, ptr %4, align 4
  %5 = load ptr, ptr %3, align 8
  %6 = getelementptr inbounds nuw %struct.List, ptr %5, i32 0, i32 3
  %7 = load ptr, ptr %6, align 8
  %8 = load i32, ptr %4, align 4
  %9 = sext i32 %8 to i64
  %10 = getelementptr inbounds %union.ListCell, ptr %7, i64 %9
  ret ptr %10
}

; Function Attrs: inlinehint nounwind uwtable
define internal ptr @TupleDescAttr(ptr noundef %0, i32 noundef %1) #4 {
  %3 = alloca ptr, align 8
  %4 = alloca i32, align 4
  %5 = alloca ptr, align 8
  store ptr %0, ptr %3, align 8
  store i32 %1, ptr %4, align 4
  call void @llvm.lifetime.start.p0(i64 8, ptr %5) #10
  %6 = load ptr, ptr %3, align 8
  %7 = load ptr, ptr %3, align 8
  %8 = getelementptr inbounds nuw %struct.TupleDescData, ptr %7, i32 0, i32 0
  %9 = load i32, ptr %8, align 8
  %10 = sext i32 %9 to i64
  %11 = mul i64 %10, 16
  %12 = add i64 24, %11
  %13 = getelementptr inbounds nuw i8, ptr %6, i64 %12
  store ptr %13, ptr %5, align 8
  %14 = load ptr, ptr %5, align 8
  %15 = load i32, ptr %4, align 4
  %16 = sext i32 %15 to i64
  %17 = getelementptr inbounds %struct.FormData_pg_attribute, ptr %14, i64 %16
  call void @llvm.lifetime.end.p0(i64 8, ptr %5) #10
  ret ptr %17
}

; Function Attrs: inlinehint nounwind uwtable
define internal ptr @list_nth(ptr noundef %0, i32 noundef %1) #4 {
  %3 = alloca ptr, align 8
  %4 = alloca i32, align 4
  store ptr %0, ptr %3, align 8
  store i32 %1, ptr %4, align 4
  %5 = load ptr, ptr %3, align 8
  %6 = load i32, ptr %4, align 4
  %7 = call ptr @list_nth_cell(ptr noundef %5, i32 noundef %6)
  %8 = load ptr, ptr %7, align 8
  ret ptr %8
}

; Function Attrs: nounwind uwtable
define dso_local ptr @get_dependent_generated_columns(ptr noundef %0, i32 noundef %1, ptr noundef %2) #0 {
  %4 = alloca ptr, align 8
  %5 = alloca i32, align 4
  %6 = alloca ptr, align 8
  %7 = alloca ptr, align 8
  %8 = alloca ptr, align 8
  %9 = alloca ptr, align 8
  %10 = alloca ptr, align 8
  %11 = alloca ptr, align 8
  %12 = alloca i32, align 4
  %13 = alloca i32, align 4
  %14 = alloca ptr, align 8
  %15 = alloca ptr, align 8
  %16 = alloca ptr, align 8
  store ptr %0, ptr %4, align 8
  store i32 %1, ptr %5, align 4
  store ptr %2, ptr %6, align 8
  call void @llvm.lifetime.start.p0(i64 8, ptr %7) #10
  store ptr null, ptr %7, align 8
  call void @llvm.lifetime.start.p0(i64 8, ptr %8) #10
  %17 = load ptr, ptr %4, align 8
  %18 = getelementptr inbounds nuw %struct.PlannerInfo, ptr %17, i32 0, i32 9
  %19 = load ptr, ptr %18, align 8
  %20 = icmp ne ptr %19, null
  br i1 %20, label %21, label %29

21:                                               ; preds = %3
  %22 = load ptr, ptr %4, align 8
  %23 = getelementptr inbounds nuw %struct.PlannerInfo, ptr %22, i32 0, i32 9
  %24 = load ptr, ptr %23, align 8
  %25 = load i32, ptr %5, align 4
  %26 = zext i32 %25 to i64
  %27 = getelementptr inbounds nuw ptr, ptr %24, i64 %26
  %28 = load ptr, ptr %27, align 8
  br label %38

29:                                               ; preds = %3
  %30 = load ptr, ptr %4, align 8
  %31 = getelementptr inbounds nuw %struct.PlannerInfo, ptr %30, i32 0, i32 1
  %32 = load ptr, ptr %31, align 8
  %33 = getelementptr inbounds nuw %struct.Query, ptr %32, i32 0, i32 19
  %34 = load ptr, ptr %33, align 8
  %35 = load i32, ptr %5, align 4
  %36 = sub i32 %35, 1
  %37 = call ptr @list_nth(ptr noundef %34, i32 noundef %36)
  br label %38

38:                                               ; preds = %29, %21
  %39 = phi ptr [ %28, %21 ], [ %37, %29 ]
  store ptr %39, ptr %8, align 8
  call void @llvm.lifetime.start.p0(i64 8, ptr %9) #10
  call void @llvm.lifetime.start.p0(i64 8, ptr %10) #10
  call void @llvm.lifetime.start.p0(i64 8, ptr %11) #10
  %40 = load ptr, ptr %8, align 8
  %41 = getelementptr inbounds nuw %struct.RangeTblEntry, ptr %40, i32 0, i32 4
  %42 = load i32, ptr %41, align 4
  %43 = call ptr @table_open(i32 noundef %42, i32 noundef 0)
  store ptr %43, ptr %9, align 8
  %44 = load ptr, ptr %9, align 8
  %45 = getelementptr inbounds nuw %struct.RelationData, ptr %44, i32 0, i32 14
  %46 = load ptr, ptr %45, align 8
  store ptr %46, ptr %10, align 8
  %47 = load ptr, ptr %10, align 8
  %48 = getelementptr inbounds nuw %struct.TupleDescData, ptr %47, i32 0, i32 4
  %49 = load ptr, ptr %48, align 8
  store ptr %49, ptr %11, align 8
  %50 = load ptr, ptr %11, align 8
  %51 = icmp ne ptr %50, null
  br i1 %51, label %52, label %109

52:                                               ; preds = %38
  %53 = load ptr, ptr %11, align 8
  %54 = getelementptr inbounds nuw %struct.TupleConstr, ptr %53, i32 0, i32 6
  %55 = load i8, ptr %54, align 1, !range !4, !noundef !5
  %56 = trunc i8 %55 to i1
  br i1 %56, label %57, label %109

57:                                               ; preds = %52
  call void @llvm.lifetime.start.p0(i64 4, ptr %12) #10
  store i32 0, ptr %12, align 4
  br label %58

58:                                               ; preds = %105, %57
  %59 = load i32, ptr %12, align 4
  %60 = load ptr, ptr %11, align 8
  %61 = getelementptr inbounds nuw %struct.TupleConstr, ptr %60, i32 0, i32 3
  %62 = load i16, ptr %61, align 8
  %63 = zext i16 %62 to i32
  %64 = icmp slt i32 %59, %63
  br i1 %64, label %66, label %65

65:                                               ; preds = %58
  store i32 2, ptr %13, align 4
  call void @llvm.lifetime.end.p0(i64 4, ptr %12) #10
  br label %108

66:                                               ; preds = %58
  call void @llvm.lifetime.start.p0(i64 8, ptr %14) #10
  %67 = load ptr, ptr %11, align 8
  %68 = getelementptr inbounds nuw %struct.TupleConstr, ptr %67, i32 0, i32 0
  %69 = load ptr, ptr %68, align 8
  %70 = load i32, ptr %12, align 4
  %71 = sext i32 %70 to i64
  %72 = getelementptr inbounds %struct.AttrDefault, ptr %69, i64 %71
  store ptr %72, ptr %14, align 8
  call void @llvm.lifetime.start.p0(i64 8, ptr %15) #10
  call void @llvm.lifetime.start.p0(i64 8, ptr %16) #10
  store ptr null, ptr %16, align 8
  %73 = load ptr, ptr %10, align 8
  %74 = load ptr, ptr %14, align 8
  %75 = getelementptr inbounds nuw %struct.AttrDefault, ptr %74, i32 0, i32 0
  %76 = load i16, ptr %75, align 8
  %77 = sext i16 %76 to i32
  %78 = sub i32 %77, 1
  %79 = call ptr @TupleDescAttr(ptr noundef %73, i32 noundef %78)
  %80 = getelementptr inbounds nuw %struct.FormData_pg_attribute, ptr %79, i32 0, i32 15
  %81 = load i8, ptr %80, align 2
  %82 = icmp ne i8 %81, 0
  br i1 %82, label %84, label %83

83:                                               ; preds = %66
  store i32 4, ptr %13, align 4
  br label %102

84:                                               ; preds = %66
  %85 = load ptr, ptr %14, align 8
  %86 = getelementptr inbounds nuw %struct.AttrDefault, ptr %85, i32 0, i32 1
  %87 = load ptr, ptr %86, align 8
  %88 = call ptr @stringToNode(ptr noundef %87)
  store ptr %88, ptr %15, align 8
  %89 = load ptr, ptr %15, align 8
  call void @pull_varattnos(ptr noundef %89, i32 noundef 1, ptr noundef %16)
  %90 = load ptr, ptr %6, align 8
  %91 = load ptr, ptr %16, align 8
  %92 = call zeroext i1 @bms_overlap(ptr noundef %90, ptr noundef %91)
  br i1 %92, label %93, label %101

93:                                               ; preds = %84
  %94 = load ptr, ptr %7, align 8
  %95 = load ptr, ptr %14, align 8
  %96 = getelementptr inbounds nuw %struct.AttrDefault, ptr %95, i32 0, i32 0
  %97 = load i16, ptr %96, align 8
  %98 = sext i16 %97 to i32
  %99 = sub i32 %98, -7
  %100 = call ptr @bms_add_member(ptr noundef %94, i32 noundef %99)
  store ptr %100, ptr %7, align 8
  br label %101

101:                                              ; preds = %93, %84
  store i32 0, ptr %13, align 4
  br label %102

102:                                              ; preds = %101, %83
  call void @llvm.lifetime.end.p0(i64 8, ptr %16) #10
  call void @llvm.lifetime.end.p0(i64 8, ptr %15) #10
  call void @llvm.lifetime.end.p0(i64 8, ptr %14) #10
  %103 = load i32, ptr %13, align 4
  switch i32 %103, label %112 [
    i32 0, label %104
    i32 4, label %105
  ]

104:                                              ; preds = %102
  br label %105

105:                                              ; preds = %104, %102
  %106 = load i32, ptr %12, align 4
  %107 = add i32 %106, 1
  store i32 %107, ptr %12, align 4
  br label %58, !llvm.loop !33

108:                                              ; preds = %65
  br label %109

109:                                              ; preds = %108, %52, %38
  %110 = load ptr, ptr %9, align 8
  call void @table_close(ptr noundef %110, i32 noundef 0)
  %111 = load ptr, ptr %7, align 8
  store i32 1, ptr %13, align 4
  call void @llvm.lifetime.end.p0(i64 8, ptr %11) #10
  call void @llvm.lifetime.end.p0(i64 8, ptr %10) #10
  call void @llvm.lifetime.end.p0(i64 8, ptr %9) #10
  call void @llvm.lifetime.end.p0(i64 8, ptr %8) #10
  call void @llvm.lifetime.end.p0(i64 8, ptr %7) #10
  ret ptr %111

112:                                              ; preds = %102
  unreachable
}