; Function Attrs: nounwind uwtable
define dso_local ptr @get_dependent_generated_columns(ptr noundef readonly captures(none) %0, i32 noundef %1, ptr noundef %2) local_unnamed_addr #0 {
  %4 = alloca ptr, align 8
  %5 = getelementptr inbounds nuw i8, ptr %0, i64 72
  %6 = load ptr, ptr %5, align 8
  %.not = icmp eq ptr %6, null
  br i1 %.not, label %10, label %7

7:                                                ; preds = %3
  %8 = zext i32 %1 to i64
  %9 = getelementptr inbounds nuw ptr, ptr %6, i64 %8
  br label %19

10:                                               ; preds = %3
  %11 = getelementptr inbounds nuw i8, ptr %0, i64 8
  %12 = load ptr, ptr %11, align 8
  %13 = getelementptr inbounds nuw i8, ptr %12, i64 64
  %14 = load ptr, ptr %13, align 8
  %15 = add i32 %1, -1
  %16 = getelementptr i8, ptr %14, i64 16
  %.val = load ptr, ptr %16, align 8
  %17 = sext i32 %15 to i64
  %18 = getelementptr inbounds %union.ListCell, ptr %.val, i64 %17
  br label %19

19:                                               ; preds = %10, %7
  %.in = phi ptr [ %9, %7 ], [ %18, %10 ]
  %20 = load ptr, ptr %.in, align 8
  %21 = getelementptr inbounds nuw i8, ptr %20, i64 28
  %22 = load i32, ptr %21, align 4
  %23 = tail call ptr @table_open(i32 noundef %22, i32 noundef 0) #10
  %24 = getelementptr inbounds nuw i8, ptr %23, i64 64
  %25 = load ptr, ptr %24, align 8
  %26 = getelementptr inbounds nuw i8, ptr %25, i64 16
  %27 = load ptr, ptr %26, align 8
  %.not26 = icmp eq ptr %27, null
  br i1 %.not26, label %.loopexit, label %28

28:                                               ; preds = %19
  %29 = getelementptr inbounds nuw i8, ptr %27, i64 29
  %30 = load i8, ptr %29, align 1, !range !4, !noundef !5
  %31 = trunc nuw i8 %30 to i1
  br i1 %31, label %.preheader, label %.loopexit

.preheader:                                       ; preds = %28
  %32 = getelementptr inbounds nuw i8, ptr %27, i64 24
  %invariant.gep = getelementptr i8, ptr %25, i64 14
  %33 = load i16, ptr %32, align 8
  %.not30 = icmp eq i16 %33, 0
  br i1 %.not30, label %.loopexit, label %.lr.ph

.lr.ph:                                           ; preds = %.preheader, %54
  %indvars.iv = phi i64 [ %indvars.iv.next, %54 ], [ 0, %.preheader ]
  %.129 = phi ptr [ %.2, %54 ], [ null, %.preheader ]
  %34 = load ptr, ptr %27, align 8
  %35 = getelementptr inbounds nuw %struct.AttrDefault, ptr %34, i64 %indvars.iv
  call void @llvm.lifetime.start.p0(i64 8, ptr nonnull %4) #10
  store ptr null, ptr %4, align 8
  %36 = load i16, ptr %35, align 8
  %37 = sext i16 %36 to i64
  %38 = load i32, ptr %25, align 8
  %39 = sext i32 %38 to i64
  %40 = shl nsw i64 %39, 4
  %.idx = mul nsw i64 %37, 100
  %gep = getelementptr i8, ptr %invariant.gep, i64 %40
  %41 = getelementptr i8, ptr %gep, i64 %.idx
  %42 = load i8, ptr %41, align 2
  %.not27 = icmp eq i8 %42, 0
  br i1 %.not27, label %54, label %43

43:                                               ; preds = %.lr.ph
  %44 = getelementptr inbounds nuw i8, ptr %35, i64 8
  %45 = load ptr, ptr %44, align 8
  %46 = call ptr @stringToNode(ptr noundef %45) #10
  call void @pull_varattnos(ptr noundef %46, i32 noundef 1, ptr noundef nonnull %4) #10
  %47 = load ptr, ptr %4, align 8
  %48 = call zeroext i1 @bms_overlap(ptr noundef %2, ptr noundef %47) #10
  br i1 %48, label %49, label %54

49:                                               ; preds = %43
  %50 = load i16, ptr %35, align 8
  %51 = sext i16 %50 to i32
  %52 = add nsw i32 %51, 7
  %53 = call ptr @bms_add_member(ptr noundef %.129, i32 noundef %52) #10
  br label %54

54:                                               ; preds = %43, %49, %.lr.ph
  %.2 = phi ptr [ %.129, %.lr.ph ], [ %53, %49 ], [ %.129, %43 ]
  call void @llvm.lifetime.end.p0(i64 8, ptr nonnull %4) #10
  %indvars.iv.next = add nuw nsw i64 %indvars.iv, 1
  %55 = load i16, ptr %32, align 8
  %56 = zext i16 %55 to i64
  %57 = icmp samesign ult i64 %indvars.iv.next, %56
  br i1 %57, label %.lr.ph, label %.loopexit, !llvm.loop !28

.loopexit:                                        ; preds = %54, %.preheader, %28, %19
  %.0 = phi ptr [ null, %28 ], [ null, %19 ], [ null, %.preheader ], [ %.2, %54 ]
  call void @table_close(ptr noundef %23, i32 noundef 0) #10
  ret ptr %.0
}